; Function Attrs: mustprogress nounwind uwtable
define hidden noundef zeroext i1 @_ZN17ArchiveHeapWriter23is_too_large_to_archiveEP7oopDesc(ptr noundef %0) local_unnamed_addr #0 align 2 {
  %2 = load i8, ptr @UseCompressedClassPointers, align 1
  %3 = trunc i8 %2 to i1
  %4 = getelementptr inbounds i8, ptr %0, i64 8
  br i1 %3, label %5, label %15

5:                                                ; preds = %1
  %6 = load i32, ptr %4, align 8
  %7 = load ptr, ptr @_ZN23CompressedKlassPointers5_baseE, align 8
  %8 = load i32, ptr @_ZN23CompressedKlassPointers6_shiftE, align 4
  %9 = ptrtoint ptr %7 to i64
  %10 = zext i32 %6 to i64
  %11 = zext nneg i32 %8 to i64
  %12 = shl i64 %10, %11
  %13 = add i64 %12, %9
  %14 = inttoptr i64 %13 to ptr
  br label %_ZNK7oopDesc5klassEv.exit.i

15:                                               ; preds = %1
  %16 = load ptr, ptr %4, align 8
  br label %_ZNK7oopDesc5klassEv.exit.i

_ZNK7oopDesc5klassEv.exit.i:                      ; preds = %15, %5
  %.0.i.i = phi ptr [ %14, %5 ], [ %16, %15 ]
  %17 = getelementptr inbounds i8, ptr %.0.i.i, i64 8
  %18 = load i32, ptr %17, align 8
  %19 = icmp sgt i32 %18, 0
  br i1 %19, label %20, label %30

20:                                               ; preds = %_ZNK7oopDesc5klassEv.exit.i
  %21 = and i32 %18, 1
  %.not.i.i = icmp eq i32 %21, 0
  br i1 %.not.i.i, label %22, label %25

22:                                               ; preds = %20
  %23 = lshr i32 %18, 3
  %24 = zext nneg i32 %23 to i64
  br label %_ZN7oopDesc4sizeEv.exit

25:                                               ; preds = %20
  %26 = load ptr, ptr %.0.i.i, align 8
  %27 = getelementptr inbounds i8, ptr %26, i64 256
  %28 = load ptr, ptr %27, align 8
  %29 = tail call noundef i64 %28(ptr noundef nonnull align 8 dereferenceable(196) %.0.i.i, ptr noundef nonnull %0) #18
  br label %_ZN7oopDesc4sizeEv.exit

30:                                               ; preds = %_ZNK7oopDesc5klassEv.exit.i
  %31 = icmp slt i32 %18, 0
  br i1 %31, label %32, label %52

32:                                               ; preds = %30
  %33 = select i1 %3, i64 12, i64 16
  %34 = getelementptr inbounds i8, ptr %0, i64 %33
  %35 = load i32, ptr %34, align 4
  %36 = sext i32 %35 to i64
  %37 = and i32 %18, 63
  %38 = zext nneg i32 %37 to i64
  %39 = shl i64 %36, %38
  %40 = lshr i32 %18, 16
  %41 = and i32 %40, 255
  %42 = zext nneg i32 %41 to i64
  %43 = add i64 %39, %42
  %44 = load i32, ptr @MinObjAlignmentInBytes, align 4
  %45 = add nsw i32 %44, -1
  %46 = sext i32 %45 to i64
  %47 = add i64 %43, %46
  %48 = sub i32 0, %44
  %49 = sext i32 %48 to i64
  %50 = and i64 %47, %49
  %51 = lshr i64 %50, 3
  br label %_ZN7oopDesc4sizeEv.exit

52:                                               ; preds = %30
  %53 = load ptr, ptr %.0.i.i, align 8
  %54 = getelementptr inbounds i8, ptr %53, i64 256
  %55 = load ptr, ptr %54, align 8
  %56 = tail call noundef i64 %55(ptr noundef nonnull align 8 dereferenceable(196) %.0.i.i, ptr noundef nonnull %0) #18
  br label %_ZN7oopDesc4sizeEv.exit

_ZN7oopDesc4sizeEv.exit:                          ; preds = %22, %25, %32, %52
  %.0.i1.i = phi i64 [ %29, %25 ], [ %24, %22 ], [ %51, %32 ], [ %56, %52 ]
  %57 = shl i64 %.0.i1.i, 3
  %58 = icmp ugt i64 %57, 1048576
  ret i1 %58
}